Certificate:
    Data:
        Version: 3 (0x2)
        Serial Number:
            9d:ee:f9:38:ac:3e:be:73:f6:64:a7:cf:16:6f:8b:5b
        Signature Algorithm: ecdsa-with-SHA512
        Issuer: CN=pro.ru
        Validity
            Not Before: Apr 17 07:20:10 2024 GMT
            Not After : Apr  2 07:20:10 2027 GMT
        Subject: C=ru, ST=piter, L=piter, O=pro.ru, OU=pro.ru, CN=rsyslog/emailAddress=admin@pro.ru
        Subject Public Key Info:
            Public Key Algorithm: rsaEncryption
                RSA Public-Key: (2048 bit)
                Modulus:
                    00:d3:4c:9e:15:06:e9:f5:bc:02:9c:1e:f6:c2:3b:
                    cd:86:d1:ec:15:57:0d:0e:1a:08:23:17:27:3f:08:
                    81:2e:c3:0c:9e:4e:f7:ec:0d:aa:0a:9b:52:d7:aa:
                    2e:01:e2:a1:07:2c:3d:07:55:be:6a:22:2e:52:32:
                    7b:18:24:3d:50:bf:b7:6b:ce:14:80:66:d0:ae:33:
                    09:ef:da:bc:31:01:d5:98:42:74:a3:10:eb:18:6e:
                    7e:9d:33:02:47:53:e2:bc:ee:81:69:ea:bb:9a:08:
                    d5:6d:81:4e:d0:3e:e8:6a:26:41:af:d7:0a:fc:b7:
                    d5:4d:0c:c9:b0:26:b5:7d:5e:f4:dd:af:31:a8:1d:
                    c8:20:30:7f:09:f8:04:bb:ff:6b:7c:ce:b8:37:c5:
                    20:62:9d:12:6f:f2:12:0d:8a:37:67:1d:1e:08:b4:
                    44:5c:89:5a:c5:da:28:20:e0:97:31:70:6b:1f:e2:
                    21:e0:df:4b:ab:9b:22:95:49:e3:25:8f:65:10:3b:
                    3a:98:e3:d4:31:6e:64:c1:74:a5:98:fd:fb:8d:bb:
                    f6:3a:a7:a5:bb:24:4e:ad:23:81:13:35:19:0c:cc:
                    31:3c:82:68:15:ee:2c:12:04:a9:cf:08:15:fc:6d:
                    67:9f:ba:46:85:c5:b7:b4:67:95:58:9c:fa:01:3c:
                    58:9d
                Exponent: 65537 (0x10001)
        X509v3 extensions:
            X509v3 Basic Constraints: 
                CA:FALSE
            X509v3 Subject Key Identifier: 
                E5:A3:9F:AB:0A:A7:09:1A:58:60:0B:7D:68:30:58:E1:41:28:2D:25
            X509v3 Authority Key Identifier: 
                keyid:10:DA:B2:12:E0:71:A6:76:DB:DA:A8:13:63:69:B0:49:D7:36:26:43
                DirName:/CN=pro.ru
                serial:68:E1:18:AB:04:08:41:BA:EA:87:36:B8:18:E2:40:A2:59:D1:6C:95

            X509v3 Extended Key Usage: 
                TLS Web Server Authentication
            X509v3 Key Usage: 
                Digital Signature, Key Encipherment
            X509v3 Subject Alternative Name: 
                DNS:rsyslog
    Signature Algorithm: ecdsa-with-SHA512
         30:66:02:31:00:fd:55:fb:4e:9b:bd:96:4d:1a:88:da:3a:ad:
         5b:3f:30:98:2d:07:78:8c:9a:c1:68:42:2e:f7:21:ac:b9:17:
         e6:da:fc:75:68:00:20:e2:4d:f3:98:44:bd:cd:5f:b8:77:02:
         31:00:e3:05:dc:ec:b3:97:f7:eb:35:dd:81:e5:eb:fa:94:9e:
         17:48:e8:68:76:80:42:b7:3a:1f:f5:e9:77:71:57:f8:35:9c:
         f0:d6:c7:88:c9:d3:08:0d:cc:31:4f:49:4b:19
-----BEGIN CERTIFICATE-----
MIIDLDCCArGgAwIBAgIRAJ3u+TisPr5z9mSnzxZvi1swCgYIKoZIzj0EAwQwETEP
MA0GA1UEAwwGcHJvLnJ1MB4XDTI0MDQxNzA3MjAxMFoXDTI3MDQwMjA3MjAxMFow
fjELMAkGA1UEBhMCcnUxDjAMBgNVBAgMBXBpdGVyMQ4wDAYDVQQHDAVwaXRlcjEP
MA0GA1UECgwGcHJvLnJ1MQ8wDQYDVQQLDAZwcm8ucnUxEDAOBgNVBAMMB3JzeXNs
b2cxGzAZBgkqhkiG9w0BCQEWDGFkbWluQHByby5ydTCCASIwDQYJKoZIhvcNAQEB
BQADggEPADCCAQoCggEBANNMnhUG6fW8Apwe9sI7zYbR7BVXDQ4aCCMXJz8IgS7D
DJ5O9+wNqgqbUteqLgHioQcsPQdVvmoiLlIyexgkPVC/t2vOFIBm0K4zCe/avDEB
1ZhCdKMQ6xhufp0zAkdT4rzugWnqu5oI1W2BTtA+6GomQa/XCvy31U0MybAmtX1e
9N2vMagdyCAwfwn4BLv/a3zOuDfFIGKdEm/yEg2KN2cdHgi0RFyJWsXaKCDglzFw
ax/iIeDfS6ubIpVJ4yWPZRA7Opjj1DFuZMF0pZj9+4279jqnpbskTq0jgRM1GQzM
MTyCaBXuLBIEqc8IFfxtZ5+6RoXFt7RnlVic+gE8WJ0CAwEAAaOBsTCBrjAJBgNV
HRMEAjAAMB0GA1UdDgQWBBTlo5+rCqcJGlhgC31oMFjhQSgtJTBMBgNVHSMERTBD
gBQQ2rIS4HGmdtvaqBNjabBJ1zYmQ6EVpBMwETEPMA0GA1UEAwwGcHJvLnJ1ghRo
4RirBAhBuuqHNrgY4kCiWdFslTATBgNVHSUEDDAKBggrBgEFBQcDATALBgNVHQ8E
BAMCBaAwEgYDVR0RBAswCYIHcnN5c2xvZzAKBggqhkjOPQQDBANpADBmAjEA/VX7
Tpu9lk0aiNo6rVs/MJgtB3iMmsFoQi73Iay5F+ba/HVoACDiTfOYRL3NX7h3AjEA
4wXc7LOX9+s13YHl6/qUnhdI6Gh2gEK3Oh/16XdxV/g1nPDWx4jJ0wgNzDFPSUsZ
-----END CERTIFICATE-----
