Certificate:
    Data:
        Version: 3 (0x2)
        Serial Number:
            d8:da:5d:1b:2a:c7:d8:5b:d4:9b:fd:72:83:bf:33:a3
        Signature Algorithm: ecdsa-with-SHA512
        Issuer: CN=pro.ru
        Validity
            Not Before: Apr 17 06:59:29 2024 GMT
            Not After : Apr  2 06:59:29 2027 GMT
        Subject: C=ru, ST=piter, L=piter, O=pro.ru, OU=pro.ru, CN=zabbix/emailAddress=admin@pro.ru
        Subject Public Key Info:
            Public Key Algorithm: rsaEncryption
                RSA Public-Key: (2048 bit)
                Modulus:
                    00:e5:c3:8c:40:83:a2:d4:6c:0c:1d:b5:a3:10:50:
                    2a:cf:fe:c8:e3:b7:fb:4e:09:3c:66:f1:4e:16:4c:
                    2c:e0:36:14:94:b7:39:5b:e9:5a:c6:fd:a9:21:82:
                    fe:86:ca:eb:e2:d6:83:69:26:fd:de:b2:8c:a3:f0:
                    b3:dd:cd:7a:5a:2c:c3:44:a5:ec:c3:56:ed:4a:ce:
                    27:01:ea:aa:af:84:91:c4:af:b8:ff:05:56:ba:99:
                    f1:45:d0:36:f4:90:43:00:91:2c:a7:a6:1d:75:ea:
                    ff:a1:55:e6:10:1c:16:da:d4:ad:99:45:d9:f5:3e:
                    6d:1f:67:67:64:55:43:27:8f:9b:7a:54:94:77:43:
                    a1:fc:f9:87:10:49:fe:e4:d6:ed:68:00:d2:33:76:
                    89:cb:69:b8:4d:2c:f3:02:9c:a8:fa:5e:8e:d4:8a:
                    5b:72:e2:f8:18:bb:6e:41:56:3f:ab:f7:f8:22:66:
                    59:e8:f2:18:45:87:5f:3e:2a:dc:ed:c2:af:71:82:
                    4e:9d:71:02:0f:be:41:34:e1:0d:46:57:64:91:13:
                    11:f3:35:87:31:06:e9:16:4f:19:ae:2b:6a:98:11:
                    46:8d:f2:ce:a0:6c:87:8f:d6:be:d1:b3:fa:11:f2:
                    6c:7f:d8:13:a8:64:e9:43:42:ba:9e:c8:d3:db:bd:
                    f7:6f
                Exponent: 65537 (0x10001)
        X509v3 extensions:
            X509v3 Basic Constraints: 
                CA:FALSE
            X509v3 Subject Key Identifier: 
                A7:E8:91:DF:74:C0:02:5F:C5:3F:A3:1B:4E:E8:CE:F4:EE:7B:ED:38
            X509v3 Authority Key Identifier: 
                keyid:10:DA:B2:12:E0:71:A6:76:DB:DA:A8:13:63:69:B0:49:D7:36:26:43
                DirName:/CN=pro.ru
                serial:68:E1:18:AB:04:08:41:BA:EA:87:36:B8:18:E2:40:A2:59:D1:6C:95

            X509v3 Extended Key Usage: 
                TLS Web Server Authentication
            X509v3 Key Usage: 
                Digital Signature, Key Encipherment
            X509v3 Subject Alternative Name: 
                DNS:zabbix
    Signature Algorithm: ecdsa-with-SHA512
         30:65:02:31:00:f5:1a:7a:8d:6e:46:77:c9:81:a2:65:c3:4b:
         70:92:05:f5:56:76:e2:4d:8d:b8:61:05:cb:0c:38:c0:b2:40:
         3f:2b:be:5c:a5:76:9f:32:29:d8:a9:ce:ee:8f:9d:62:1b:02:
         30:71:12:0f:5b:5d:a3:a2:95:9f:22:95:35:d7:59:57:8f:4d:
         b7:44:20:e8:b3:34:64:08:06:8c:8d:c5:af:80:ca:8b:0f:7c:
         57:fa:7b:61:66:31:1a:47:ec:bf:97:9b:03
-----BEGIN CERTIFICATE-----
MIIDKTCCAq+gAwIBAgIRANjaXRsqx9hb1Jv9coO/M6MwCgYIKoZIzj0EAwQwETEP
MA0GA1UEAwwGcHJvLnJ1MB4XDTI0MDQxNzA2NTkyOVoXDTI3MDQwMjA2NTkyOVow
fTELMAkGA1UEBhMCcnUxDjAMBgNVBAgMBXBpdGVyMQ4wDAYDVQQHDAVwaXRlcjEP
MA0GA1UECgwGcHJvLnJ1MQ8wDQYDVQQLDAZwcm8ucnUxDzANBgNVBAMMBnphYmJp
eDEbMBkGCSqGSIb3DQEJARYMYWRtaW5AcHJvLnJ1MIIBIjANBgkqhkiG9w0BAQEF
AAOCAQ8AMIIBCgKCAQEA5cOMQIOi1GwMHbWjEFAqz/7I47f7Tgk8ZvFOFkws4DYU
lLc5W+laxv2pIYL+hsrr4taDaSb93rKMo/Cz3c16WizDRKXsw1btSs4nAeqqr4SR
xK+4/wVWupnxRdA29JBDAJEsp6Ydder/oVXmEBwW2tStmUXZ9T5tH2dnZFVDJ4+b
elSUd0Oh/PmHEEn+5NbtaADSM3aJy2m4TSzzApyo+l6O1IpbcuL4GLtuQVY/q/f4
ImZZ6PIYRYdfPirc7cKvcYJOnXECD75BNOENRldkkRMR8zWHMQbpFk8ZritqmBFG
jfLOoGyHj9a+0bP6EfJsf9gTqGTpQ0K6nsjT2733bwIDAQABo4GwMIGtMAkGA1Ud
EwQCMAAwHQYDVR0OBBYEFKfokd90wAJfxT+jG07ozvTue+04MEwGA1UdIwRFMEOA
FBDashLgcaZ229qoE2NpsEnXNiZDoRWkEzARMQ8wDQYDVQQDDAZwcm8ucnWCFGjh
GKsECEG66oc2uBjiQKJZ0WyVMBMGA1UdJQQMMAoGCCsGAQUFBwMBMAsGA1UdDwQE
AwIFoDARBgNVHREECjAIggZ6YWJiaXgwCgYIKoZIzj0EAwQDaAAwZQIxAPUaeo1u
RnfJgaJlw0twkgX1VnbiTY24YQXLDDjAskA/K75cpXafMinYqc7uj51iGwIwcRIP
W12jopWfIpU111lXj023RCDoszRkCAaMjcWvgMqLD3xX+nthZjEaR+y/l5sD
-----END CERTIFICATE-----
