Certificate:
    Data:
        Version: 3 (0x2)
        Serial Number:
            55:9f:72:1f:47:a9:14:b7:fb:c3:cd:ab:0e:e0:b6:ff
        Signature Algorithm: ecdsa-with-SHA512
        Issuer: CN=pro.ru
        Validity
            Not Before: Apr 17 06:33:35 2024 GMT
            Not After : Apr  2 06:33:35 2027 GMT
        Subject: C=ru, ST=piter, L=piter, O=pro.ru, OU=pro.ru, CN=postgres/emailAddress=admin@pro.ru
        Subject Public Key Info:
            Public Key Algorithm: rsaEncryption
                RSA Public-Key: (2048 bit)
                Modulus:
                    00:c7:28:98:84:84:67:ac:56:71:49:7f:90:77:07:
                    d6:22:e9:d5:c2:63:b3:80:ba:84:29:6a:54:47:73:
                    fc:8e:a5:cd:02:d3:63:95:32:18:70:e5:f5:86:77:
                    61:06:aa:c6:47:0f:0c:02:79:6a:e3:f4:1d:a4:72:
                    65:b6:10:07:90:0a:26:4a:fd:cd:1f:e5:81:31:0c:
                    61:32:24:ca:7c:8e:c3:71:1b:2d:21:1d:ea:f6:52:
                    8d:5c:a8:cf:54:24:c9:29:42:fa:8a:1a:82:c3:90:
                    c4:df:7f:23:f9:2c:10:ef:a2:e1:ec:c6:f1:b0:07:
                    61:e5:4d:a7:6b:bb:2f:3b:13:35:9d:3e:87:bc:e3:
                    73:7f:63:3c:51:7d:37:c4:12:85:97:61:e7:f3:57:
                    48:1e:0f:1f:f6:32:03:21:71:06:79:94:e4:a4:fb:
                    c4:8a:ff:23:6c:6f:6c:e3:f4:03:b3:11:15:7b:40:
                    59:d2:ff:f8:5c:84:35:90:55:87:2e:df:b8:38:40:
                    4b:91:40:88:28:4f:ef:b0:9c:ec:31:56:6e:ba:fc:
                    7a:c5:f4:ed:d1:1f:8b:59:b5:6b:33:c1:f3:26:61:
                    ec:92:a8:94:c3:9a:e5:ed:be:b4:47:d8:fb:16:90:
                    23:e6:75:c2:c9:72:55:8c:b8:be:89:7e:f3:c7:46:
                    29:3b
                Exponent: 65537 (0x10001)
        X509v3 extensions:
            X509v3 Basic Constraints: 
                CA:FALSE
            X509v3 Subject Key Identifier: 
                BD:B0:AC:AF:06:D0:7A:2F:6C:1B:A4:A0:50:73:83:39:1B:8A:5B:03
            X509v3 Authority Key Identifier: 
                keyid:10:DA:B2:12:E0:71:A6:76:DB:DA:A8:13:63:69:B0:49:D7:36:26:43
                DirName:/CN=pro.ru
                serial:68:E1:18:AB:04:08:41:BA:EA:87:36:B8:18:E2:40:A2:59:D1:6C:95

            X509v3 Extended Key Usage: 
                TLS Web Server Authentication
            X509v3 Key Usage: 
                Digital Signature, Key Encipherment
            X509v3 Subject Alternative Name: 
                DNS:postgres
    Signature Algorithm: ecdsa-with-SHA512
         30:65:02:30:3c:82:24:32:1c:7a:96:72:9a:69:5b:c3:47:9c:
         59:02:f4:e4:e4:95:af:39:cc:69:4e:bb:84:3a:1d:d5:0e:9c:
         da:5e:1d:29:d3:c6:eb:47:9b:b7:aa:f0:73:6c:39:dc:02:31:
         00:a9:07:df:b6:10:eb:51:21:a8:4c:6e:f3:a4:92:24:ee:4a:
         20:21:75:83:81:63:1a:43:ae:95:09:8f:72:e0:4c:57:ed:6b:
         c0:8b:ea:a6:4e:9f:17:ec:29:59:b9:81:a5
-----BEGIN CERTIFICATE-----
MIIDLDCCArKgAwIBAgIQVZ9yH0epFLf7w82rDuC2/zAKBggqhkjOPQQDBDARMQ8w
DQYDVQQDDAZwcm8ucnUwHhcNMjQwNDE3MDYzMzM1WhcNMjcwNDAyMDYzMzM1WjB/
MQswCQYDVQQGEwJydTEOMAwGA1UECAwFcGl0ZXIxDjAMBgNVBAcMBXBpdGVyMQ8w
DQYDVQQKDAZwcm8ucnUxDzANBgNVBAsMBnByby5ydTERMA8GA1UEAwwIcG9zdGdy
ZXMxGzAZBgkqhkiG9w0BCQEWDGFkbWluQHByby5ydTCCASIwDQYJKoZIhvcNAQEB
BQADggEPADCCAQoCggEBAMcomISEZ6xWcUl/kHcH1iLp1cJjs4C6hClqVEdz/I6l
zQLTY5UyGHDl9YZ3YQaqxkcPDAJ5auP0HaRyZbYQB5AKJkr9zR/lgTEMYTIkynyO
w3EbLSEd6vZSjVyoz1QkySlC+ooagsOQxN9/I/ksEO+i4ezG8bAHYeVNp2u7LzsT
NZ0+h7zjc39jPFF9N8QShZdh5/NXSB4PH/YyAyFxBnmU5KT7xIr/I2xvbOP0A7MR
FXtAWdL/+FyENZBVhy7fuDhAS5FAiChP77Cc7DFWbrr8esX07dEfi1m1azPB8yZh
7JKolMOa5e2+tEfY+xaQI+Z1wslyVYy4vol+88dGKTsCAwEAAaOBsjCBrzAJBgNV
HRMEAjAAMB0GA1UdDgQWBBS9sKyvBtB6L2wbpKBQc4M5G4pbAzBMBgNVHSMERTBD
gBQQ2rIS4HGmdtvaqBNjabBJ1zYmQ6EVpBMwETEPMA0GA1UEAwwGcHJvLnJ1ghRo
4RirBAhBuuqHNrgY4kCiWdFslTATBgNVHSUEDDAKBggrBgEFBQcDATALBgNVHQ8E
BAMCBaAwEwYDVR0RBAwwCoIIcG9zdGdyZXMwCgYIKoZIzj0EAwQDaAAwZQIwPIIk
Mhx6lnKaaVvDR5xZAvTk5JWvOcxpTruEOh3VDpzaXh0p08brR5u3qvBzbDncAjEA
qQffthDrUSGoTG7zpJIk7kogIXWDgWMaQ66VCY9y4ExX7WvAi+qmTp8X7ClZuYGl
-----END CERTIFICATE-----
